; Function Attrs: mustprogress uwtable
define noundef zeroext i1 @_ZNK8QuantLib12UnitedStates15LiborImpactImpl13isBusinessDayERKNS_4DateE(ptr noundef nonnull align 8 dereferenceable(104) %this, ptr noundef nonnull align 8 dereferenceable(8) %date) unnamed_addr #0 align 2 {
entry:
  %0 = load i64, ptr %date, align 8, !tbaa !74
  %rem.i = srem i64 %0, 7
  %conv.i = trunc nsw i64 %rem.i to i32
  %cmp.i = icmp eq i64 %rem.i, 0
  %cond.i = select i1 %cmp.i, i32 7, i32 %conv.i
  %call.i.i = tail call noundef i32 @_ZNK8QuantLib4Date4yearEv(ptr noundef nonnull align 8 dereferenceable(8) %date)
  %call2.i.i = tail call noundef i64 @_ZN8QuantLib4Date10yearOffsetEi(i32 noundef %call.i.i)
  %sub.i.i = sub nsw i64 %0, %call2.i.i
  %conv.i.i = trunc i64 %sub.i.i to i32
  %call2.i = tail call noundef i32 @_ZNK8QuantLib4Date5monthEv(ptr noundef nonnull align 8 dereferenceable(8) %date)
  %call3.i = tail call noundef i32 @_ZNK8QuantLib4Date4yearEv(ptr noundef nonnull align 8 dereferenceable(8) %date)
  %call4.i = tail call noundef zeroext i1 @_ZN8QuantLib4Date6isLeapEi(i32 noundef %call3.i)
  %call5.i = tail call noundef i32 @_ZN8QuantLib4Date11monthOffsetENS_5MonthEb(i32 noundef %call2.i, i1 noundef zeroext %call4.i)
  %sub.i = sub nsw i32 %conv.i.i, %call5.i
  %call3 = tail call noundef i32 @_ZNK8QuantLib4Date5monthEv(ptr noundef nonnull align 8 dereferenceable(8) %date)
  %call4 = tail call noundef i32 @_ZNK8QuantLib4Date4yearEv(ptr noundef nonnull align 8 dereferenceable(8) %date)
  %cmp = icmp eq i32 %sub.i, 5
  %cmp5 = icmp eq i32 %cond.i, 2
  %or.cond = and i1 %cmp5, %cmp
  br i1 %or.cond, label %land.lhs.true9, label %lor.lhs.false

lor.lhs.false:                                    ; preds = %entry
  %cmp6 = icmp eq i32 %sub.i, 3
  %cmp8 = icmp eq i32 %cond.i, 6
  %or.cond1 = and i1 %cmp8, %cmp6
  %cmp10 = icmp eq i32 %call3, 7
  %or.cond2 = and i1 %cmp10, %or.cond1
  %cmp12 = icmp sgt i32 %call4, 2014
  %or.cond10 = and i1 %cmp12, %or.cond2
  br i1 %or.cond10, label %cleanup, label %if.end

land.lhs.true9:                                   ; preds = %entry
  %cmp10.old = icmp eq i32 %call3, 7
  %cmp12.old = icmp sgt i32 %call4, 2014
  %or.cond11 = and i1 %cmp10.old, %cmp12.old
  br i1 %or.cond11, label %cleanup, label %if.end

if.end:                                           ; preds = %land.lhs.true9, %lor.lhs.false
  %call13 = tail call noundef zeroext i1 @_ZNK8QuantLib12UnitedStates14SettlementImpl13isBusinessDayERKNS_4DateE(ptr noundef nonnull align 8 dereferenceable(104) %this, ptr noundef nonnull align 8 dereferenceable(8) %date)
  br label %cleanup

cleanup:                                          ; preds = %lor.lhs.false, %land.lhs.true9, %if.end
  %retval.0 = phi i1 [ %call13, %if.end ], [ true, %land.lhs.true9 ], [ true, %lor.lhs.false ]
  ret i1 %retval.0
}